target datalayout = "e-m:e-p270:32:32-p271:32:32-p272:64:64-i64:64-i128:128-f80:128-n8:16:32:64-S128"
target triple = "x86_64-unknown-linux-gnu"

%class.btVector3 = type { [4 x float] }
%class.btMatrix3x3 = type { [3 x %class.btVector3] }
%class.btTransform = type { %class.btMatrix3x3, %class.btVector3 }
%"struct.btSoftBody::Node" = type <{ %"struct.btSoftBody::Feature", %class.btVector3, %class.btVector3, %class.btVector3, %class.btVector3, %class.btVector3, %class.btVector3, float, float, ptr, i32, i8, [3 x i8], i32, %class.btVector3, %class.btMatrix3x3, %class.btMatrix3x3, [4 x i8] }>
%"struct.btSoftBody::Feature" = type { %"struct.btSoftBody::Element", ptr }
%"struct.btSoftBody::Element" = type { ptr }
%class.btSoftBody = type { %class.btCollisionObject.base, [4 x i8], %class.btAlignedObjectArray, ptr, %"struct.btSoftBody::Config", %"struct.btSoftBody::SolverState", [4 x i8], %"struct.btSoftBody::Pose", ptr, ptr, %class.btAlignedObjectArray.16, %class.btAlignedObjectArray.20, %class.btAlignedObjectArray.24, %class.btAlignedObjectArray.28, %class.btAlignedObjectArray.32, %class.btAlignedObjectArray.36, %class.btAlignedObjectArray.40, %class.btAlignedObjectArray.44, %class.btAlignedObjectArray.44, %class.btAlignedObjectArray.48, %class.btAlignedObjectArray.52, %class.btAlignedObjectArray.56, %class.btAlignedObjectArray.60, %class.btAlignedObjectArray.64, %class.btAlignedObjectArray.68, %class.btAlignedObjectArray.64, %class.btAlignedObjectArray.72, %class.btAlignedObjectArray.76, %class.btAlignedObjectArray.80, float, [2 x %class.btVector3], i8, %struct.btDbvt, %struct.btDbvt, ptr, %struct.btDbvt, %class.btAlignedObjectArray.88, float, float, float, [4 x i8], %class.btAlignedObjectArray.8, float, float, i8, [7 x i8], %class.btAlignedObjectArray.8, %class.btAlignedObjectArray.92, %class.btAlignedObjectArray.96, %class.btAlignedObjectArray.12, i8, i8, [6 x i8], %class.btAlignedObjectArray.100, %class.btVector3, float, i8, [3 x i8], %class.btAlignedObjectArray.104 }
%class.btCollisionObject.base = type <{ ptr, %class.btTransform, %class.btTransform, %class.btVector3, %class.btVector3, %class.btVector3, i32, float, ptr, ptr, ptr, ptr, i32, i32, i32, i32, i32, float, float, float, float, float, float, float, i32, [4 x i8], ptr, i32, i32, i32, float, float, float, i32, [4 x i8], %class.btAlignedObjectArray, i32, %class.btVector3 }>
%class.btAlignedObjectArray = type <{ %class.btAlignedAllocator, [3 x i8], i32, i32, [4 x i8], ptr, i8, [7 x i8] }>
%class.btAlignedAllocator = type { i8 }
%"struct.btSoftBody::Config" = type { i32, float, float, float, float, float, float, float, float, float, float, float, float, float, float, float, float, float, float, float, float, i32, i32, i32, i32, i32, %class.btAlignedObjectArray.0, %class.btAlignedObjectArray.4, %class.btAlignedObjectArray.4, float, float }
%class.btAlignedObjectArray.0 = type <{ %class.btAlignedAllocator.1, [3 x i8], i32, i32, [4 x i8], ptr, i8, [7 x i8] }>
%class.btAlignedAllocator.1 = type { i8 }
%class.btAlignedObjectArray.4 = type <{ %class.btAlignedAllocator.5, [3 x i8], i32, i32, [4 x i8], ptr, i8, [7 x i8] }>
%class.btAlignedAllocator.5 = type { i8 }
%"struct.btSoftBody::SolverState" = type { float, float, float, float, float }
%"struct.btSoftBody::Pose" = type { i8, i8, float, %class.btAlignedObjectArray.8, %class.btAlignedObjectArray.12, %class.btVector3, %class.btMatrix3x3, %class.btMatrix3x3, %class.btMatrix3x3 }
%class.btAlignedObjectArray.16 = type <{ %class.btAlignedAllocator.17, [3 x i8], i32, i32, [4 x i8], ptr, i8, [7 x i8] }>
%class.btAlignedAllocator.17 = type { i8 }
%class.btAlignedObjectArray.20 = type <{ %class.btAlignedAllocator.21, [3 x i8], i32, i32, [4 x i8], ptr, i8, [7 x i8] }>
%class.btAlignedAllocator.21 = type { i8 }
%class.btAlignedObjectArray.24 = type <{ %class.btAlignedAllocator.25, [3 x i8], i32, i32, [4 x i8], ptr, i8, [7 x i8] }>
%class.btAlignedAllocator.25 = type { i8 }
%class.btAlignedObjectArray.28 = type <{ %class.btAlignedAllocator.29, [3 x i8], i32, i32, [4 x i8], ptr, i8, [7 x i8] }>
%class.btAlignedAllocator.29 = type { i8 }
%class.btAlignedObjectArray.32 = type <{ %class.btAlignedAllocator.33, [3 x i8], i32, i32, [4 x i8], ptr, i8, [7 x i8] }>
%class.btAlignedAllocator.33 = type { i8 }
%class.btAlignedObjectArray.36 = type <{ %class.btAlignedAllocator.37, [3 x i8], i32, i32, [4 x i8], ptr, i8, [7 x i8] }>
%class.btAlignedAllocator.37 = type { i8 }
%class.btAlignedObjectArray.40 = type <{ %class.btAlignedAllocator.41, [3 x i8], i32, i32, [4 x i8], ptr, i8, [7 x i8] }>
%class.btAlignedAllocator.41 = type { i8 }
%class.btAlignedObjectArray.44 = type <{ %class.btAlignedAllocator.45, [3 x i8], i32, i32, [4 x i8], ptr, i8, [7 x i8] }>
%class.btAlignedAllocator.45 = type { i8 }
%class.btAlignedObjectArray.48 = type <{ %class.btAlignedAllocator.49, [3 x i8], i32, i32, [4 x i8], ptr, i8, [7 x i8] }>
%class.btAlignedAllocator.49 = type { i8 }
%class.btAlignedObjectArray.52 = type <{ %class.btAlignedAllocator.53, [3 x i8], i32, i32, [4 x i8], ptr, i8, [7 x i8] }>
%class.btAlignedAllocator.53 = type { i8 }
%class.btAlignedObjectArray.56 = type <{ %class.btAlignedAllocator.57, [3 x i8], i32, i32, [4 x i8], ptr, i8, [7 x i8] }>
%class.btAlignedAllocator.57 = type { i8 }
%class.btAlignedObjectArray.60 = type <{ %class.btAlignedAllocator.61, [3 x i8], i32, i32, [4 x i8], ptr, i8, [7 x i8] }>
%class.btAlignedAllocator.61 = type { i8 }
%class.btAlignedObjectArray.68 = type <{ %class.btAlignedAllocator.69, [3 x i8], i32, i32, [4 x i8], ptr, i8, [7 x i8] }>
%class.btAlignedAllocator.69 = type { i8 }
%class.btAlignedObjectArray.64 = type <{ %class.btAlignedAllocator.65, [3 x i8], i32, i32, [4 x i8], ptr, i8, [7 x i8] }>
%class.btAlignedAllocator.65 = type { i8 }
%class.btAlignedObjectArray.72 = type <{ %class.btAlignedAllocator.73, [3 x i8], i32, i32, [4 x i8], ptr, i8, [7 x i8] }>
%class.btAlignedAllocator.73 = type { i8 }
%class.btAlignedObjectArray.76 = type <{ %class.btAlignedAllocator.77, [3 x i8], i32, i32, [4 x i8], ptr, i8, [7 x i8] }>
%class.btAlignedAllocator.77 = type { i8 }
%class.btAlignedObjectArray.80 = type <{ %class.btAlignedAllocator.81, [3 x i8], i32, i32, [4 x i8], ptr, i8, [7 x i8] }>
%class.btAlignedAllocator.81 = type { i8 }
%struct.btDbvt = type { ptr, ptr, i32, i32, i32, [4 x i8], %class.btAlignedObjectArray.84 }
%class.btAlignedObjectArray.84 = type <{ %class.btAlignedAllocator.85, [3 x i8], i32, i32, [4 x i8], ptr, i8, [7 x i8] }>
%class.btAlignedAllocator.85 = type { i8 }
%class.btAlignedObjectArray.88 = type <{ %class.btAlignedAllocator.89, [3 x i8], i32, i32, [4 x i8], ptr, i8, [7 x i8] }>
%class.btAlignedAllocator.89 = type { i8 }
%class.btAlignedObjectArray.8 = type <{ %class.btAlignedAllocator.9, [3 x i8], i32, i32, [4 x i8], ptr, i8, [7 x i8] }>
%class.btAlignedAllocator.9 = type { i8 }
%class.btAlignedObjectArray.92 = type <{ %class.btAlignedAllocator.93, [3 x i8], i32, i32, [4 x i8], ptr, i8, [7 x i8] }>
%class.btAlignedAllocator.93 = type { i8 }
%class.btAlignedObjectArray.96 = type <{ %class.btAlignedAllocator.97, [3 x i8], i32, i32, [4 x i8], ptr, i8, [7 x i8] }>
%class.btAlignedAllocator.97 = type { i8 }
%class.btAlignedObjectArray.12 = type <{ %class.btAlignedAllocator.13, [3 x i8], i32, i32, [4 x i8], ptr, i8, [7 x i8] }>
%class.btAlignedAllocator.13 = type { i8 }
%class.btAlignedObjectArray.100 = type <{ %class.btAlignedAllocator.101, [3 x i8], i32, i32, [4 x i8], ptr, i8, [7 x i8] }>
%class.btAlignedAllocator.101 = type { i8 }
%class.btAlignedObjectArray.104 = type <{ %class.btAlignedAllocator.105, [3 x i8], i32, i32, [4 x i8], ptr, i8, [7 x i8] }>
%class.btAlignedAllocator.105 = type { i8 }
%"struct.btSoftBody::Face" = type <{ %"struct.btSoftBody::Feature", [3 x ptr], %class.btVector3, float, [4 x i8], ptr, %class.btVector4, %class.btVector3, %class.btVector3, %class.btVector3, i32, [4 x i8] }>
%class.btVector4 = type { %class.btVector3 }

; Function Attrs: mustprogress nounwind uwtable
define linkonce_odr dso_local noundef nonnull align 8 dereferenceable(140) ptr @_ZNK20btAlignedObjectArrayIN10btSoftBody4FaceEEixEi(ptr noundef nonnull align 8 dereferenceable(25) %this, i32 noundef %n) #1 comdat align 2 {
entry:
  %this.addr = alloca ptr, align 8
  %n.addr = alloca i32, align 4
  store ptr %this, ptr %this.addr, align 8
  store i32 %n, ptr %n.addr, align 4
  %this1 = load ptr, ptr %this.addr, align 8
  %m_data = getelementptr inbounds %class.btAlignedObjectArray.32, ptr %this1, i32 0, i32 5
  %0 = load ptr, ptr %m_data, align 8
  %1 = load i32, ptr %n.addr, align 4
  %idxprom = sext i32 %1 to i64
  %arrayidx = getelementptr inbounds %"struct.btSoftBody::Face", ptr %0, i64 %idxprom
  ret ptr %arrayidx
}

; Function Attrs: mustprogress nounwind uwtable
define linkonce_odr dso_local noundef i32 @_ZNK20btAlignedObjectArrayIN10btSoftBody4FaceEE4sizeEv(ptr noundef nonnull align 8 dereferenceable(25) %this) #1 comdat align 2 {
entry:
  %this.addr = alloca ptr, align 8
  store ptr %this, ptr %this.addr, align 8
  %this1 = load ptr, ptr %this.addr, align 8
  %m_size = getelementptr inbounds %class.btAlignedObjectArray.32, ptr %this1, i32 0, i32 2
  %0 = load i32, ptr %m_size, align 4
  ret i32 %0
}

; Function Attrs: mustprogress nounwind uwtable
define linkonce_odr dso_local noundef nonnull align 8 dereferenceable(252) ptr @_ZNK20btAlignedObjectArrayIN10btSoftBody4NodeEEixEi(ptr noundef nonnull align 8 dereferenceable(25) %this, i32 noundef %n) #1 comdat align 2 {
entry:
  %this.addr = alloca ptr, align 8
  %n.addr = alloca i32, align 4
  store ptr %this, ptr %this.addr, align 8
  store i32 %n, ptr %n.addr, align 4
  %this1 = load ptr, ptr %this.addr, align 8
  %m_data = getelementptr inbounds %class.btAlignedObjectArray.20, ptr %this1, i32 0, i32 5
  %0 = load ptr, ptr %m_data, align 8
  %1 = load i32, ptr %n.addr, align 4
  %idxprom = sext i32 %1 to i64
  %arrayidx = getelementptr inbounds %"struct.btSoftBody::Node", ptr %0, i64 %idxprom
  ret ptr %arrayidx
}

; Function Attrs: mustprogress uwtable
define dso_local noundef zeroext i1 @_ZNK10btSoftBody9checkFaceEiii(ptr noundef nonnull align 8 dereferenceable(2064) %this, i32 noundef %node0, i32 noundef %node1, i32 noundef %node2) #5 align 2 {
entry:
  %retval = alloca i1, align 1
  %this.addr = alloca ptr, align 8
  %node0.addr = alloca i32, align 4
  %node1.addr = alloca i32, align 4
  %node2.addr = alloca i32, align 4
  %n = alloca [3 x ptr], align 16
  %i = alloca i32, align 4
  %ni = alloca i32, align 4
  %f = alloca ptr, align 8
  %c = alloca i32, align 4
  %j = alloca i32, align 4
  store ptr %this, ptr %this.addr, align 8
  store i32 %node0, ptr %node0.addr, align 4
  store i32 %node1, ptr %node1.addr, align 4
  store i32 %node2, ptr %node2.addr, align 4
  %this1 = load ptr, ptr %this.addr, align 8
  %arrayinit.begin = getelementptr inbounds [3 x ptr], ptr %n, i64 0, i64 0
  %m_nodes = getelementptr inbounds %class.btSoftBody, ptr %this1, i32 0, i32 11
  %0 = load i32, ptr %node0.addr, align 4
  %call = call noundef nonnull align 8 dereferenceable(252) ptr @_ZNK20btAlignedObjectArrayIN10btSoftBody4NodeEEixEi(ptr noundef nonnull align 8 dereferenceable(25) %m_nodes, i32 noundef %0)
  store ptr %call, ptr %arrayinit.begin, align 8
  %arrayinit.element = getelementptr inbounds ptr, ptr %arrayinit.begin, i64 1
  %m_nodes2 = getelementptr inbounds %class.btSoftBody, ptr %this1, i32 0, i32 11
  %1 = load i32, ptr %node1.addr, align 4
  %call3 = call noundef nonnull align 8 dereferenceable(252) ptr @_ZNK20btAlignedObjectArrayIN10btSoftBody4NodeEEixEi(ptr noundef nonnull align 8 dereferenceable(25) %m_nodes2, i32 noundef %1)
  store ptr %call3, ptr %arrayinit.element, align 8
  %arrayinit.element4 = getelementptr inbounds ptr, ptr %arrayinit.element, i64 1
  %m_nodes5 = getelementptr inbounds %class.btSoftBody, ptr %this1, i32 0, i32 11
  %2 = load i32, ptr %node2.addr, align 4
  %call6 = call noundef nonnull align 8 dereferenceable(252) ptr @_ZNK20btAlignedObjectArrayIN10btSoftBody4NodeEEixEi(ptr noundef nonnull align 8 dereferenceable(25) %m_nodes5, i32 noundef %2)
  store ptr %call6, ptr %arrayinit.element4, align 8
  store i32 0, ptr %i, align 4
  %m_faces = getelementptr inbounds %class.btSoftBody, ptr %this1, i32 0, i32 14
  %call7 = call noundef i32 @_ZNK20btAlignedObjectArrayIN10btSoftBody4FaceEE4sizeEv(ptr noundef nonnull align 8 dereferenceable(25) %m_faces)
  store i32 %call7, ptr %ni, align 4
  br label %for.cond

for.cond:                                         ; preds = %for.inc29, %entry
  %3 = load i32, ptr %i, align 4
  %4 = load i32, ptr %ni, align 4
  %cmp = icmp slt i32 %3, %4
  br i1 %cmp, label %for.body, label %for.end31

for.body:                                         ; preds = %for.cond
  %m_faces8 = getelementptr inbounds %class.btSoftBody, ptr %this1, i32 0, i32 14
  %5 = load i32, ptr %i, align 4
  %call9 = call noundef nonnull align 8 dereferenceable(140) ptr @_ZNK20btAlignedObjectArrayIN10btSoftBody4FaceEEixEi(ptr noundef nonnull align 8 dereferenceable(25) %m_faces8, i32 noundef %5)
  store ptr %call9, ptr %f, align 8
  store i32 0, ptr %c, align 4
  store i32 0, ptr %j, align 4
  br label %for.cond10

for.cond10:                                       ; preds = %for.inc, %for.body
  %6 = load i32, ptr %j, align 4
  %cmp11 = icmp slt i32 %6, 3
  br i1 %cmp11, label %for.body12, label %for.end

for.body12:                                       ; preds = %for.cond10
  %7 = load ptr, ptr %f, align 8
  %m_n = getelementptr inbounds %"struct.btSoftBody::Face", ptr %7, i32 0, i32 1
  %8 = load i32, ptr %j, align 4
  %idxprom = sext i32 %8 to i64
  %arrayidx = getelementptr inbounds [3 x ptr], ptr %m_n, i64 0, i64 %idxprom
  %9 = load ptr, ptr %arrayidx, align 8
  %arrayidx13 = getelementptr inbounds [3 x ptr], ptr %n, i64 0, i64 0
  %10 = load ptr, ptr %arrayidx13, align 16
  %cmp14 = icmp eq ptr %9, %10
  br i1 %cmp14, label %if.then, label %lor.lhs.false

lor.lhs.false:                                    ; preds = %for.body12
  %11 = load ptr, ptr %f, align 8
  %m_n15 = getelementptr inbounds %"struct.btSoftBody::Face", ptr %11, i32 0, i32 1
  %12 = load i32, ptr %j, align 4
  %idxprom16 = sext i32 %12 to i64
  %arrayidx17 = getelementptr inbounds [3 x ptr], ptr %m_n15, i64 0, i64 %idxprom16
  %13 = load ptr, ptr %arrayidx17, align 8
  %arrayidx18 = getelementptr inbounds [3 x ptr], ptr %n, i64 0, i64 1
  %14 = load ptr, ptr %arrayidx18, align 8
  %cmp19 = icmp eq ptr %13, %14
  br i1 %cmp19, label %if.then, label %lor.lhs.false20

lor.lhs.false20:                                  ; preds = %lor.lhs.false
  %15 = load ptr, ptr %f, align 8
  %m_n21 = getelementptr inbounds %"struct.btSoftBody::Face", ptr %15, i32 0, i32 1
  %16 = load i32, ptr %j, align 4
  %idxprom22 = sext i32 %16 to i64
  %arrayidx23 = getelementptr inbounds [3 x ptr], ptr %m_n21, i64 0, i64 %idxprom22
  %17 = load ptr, ptr %arrayidx23, align 8
  %arrayidx24 = getelementptr inbounds [3 x ptr], ptr %n, i64 0, i64 2
  %18 = load ptr, ptr %arrayidx24, align 16
  %cmp25 = icmp eq ptr %17, %18
  br i1 %cmp25, label %if.then, label %if.else

if.then:                                          ; preds = %lor.lhs.false20, %lor.lhs.false, %for.body12
  %19 = load i32, ptr %j, align 4
  %shl = shl i32 1, %19
  %20 = load i32, ptr %c, align 4
  %or = or i32 %20, %shl
  store i32 %or, ptr %c, align 4
  br label %if.end

if.else:                                          ; preds = %lor.lhs.false20
  br label %for.end

if.end:                                           ; preds = %if.then
  br label %for.inc

for.inc:                                          ; preds = %if.end
  %21 = load i32, ptr %j, align 4
  %inc = add nsw i32 %21, 1
  store i32 %inc, ptr %j, align 4
  br label %for.cond10, !llvm.loop !19

for.end:                                          ; preds = %if.else, %for.cond10
  %22 = load i32, ptr %c, align 4
  %cmp26 = icmp eq i32 %22, 7
  br i1 %cmp26, label %if.then27, label %if.end28

if.then27:                                        ; preds = %for.end
  store i1 true, ptr %retval, align 1
  br label %return

if.end28:                                         ; preds = %for.end
  br label %for.inc29

for.inc29:                                        ; preds = %if.end28
  %23 = load i32, ptr %i, align 4
  %inc30 = add nsw i32 %23, 1
  store i32 %inc30, ptr %i, align 4
  br label %for.cond, !llvm.loop !20

for.end31:                                        ; preds = %for.cond
  store i1 false, ptr %retval, align 1
  br label %return

return:                                           ; preds = %for.end31, %if.then27
  %24 = load i1, ptr %retval, align 1
  ret i1 %24
}