; Function Attrs: mustprogress nofree norecurse nosync nounwind willreturn memory(read, inaccessiblemem: none) uwtable
define dso_local noundef zeroext i1 @_ZNK10btSoftBody9checkFaceEiii(ptr nocapture noundef nonnull readonly align 8 dereferenceable(2064) %this, i32 noundef %node0, i32 noundef %node1, i32 noundef %node2) local_unnamed_addr #10 align 2 {
entry:
  %m_data.i = getelementptr inbounds i8, ptr %this, i64 944
  %0 = load ptr, ptr %m_data.i, align 8
  %idxprom.i = sext i32 %node0 to i64
  %arrayidx.i = getelementptr inbounds %"struct.btSoftBody::Node", ptr %0, i64 %idxprom.i
  %idxprom.i13 = sext i32 %node1 to i64
  %arrayidx.i14 = getelementptr inbounds %"struct.btSoftBody::Node", ptr %0, i64 %idxprom.i13
  %idxprom.i16 = sext i32 %node2 to i64
  %arrayidx.i17 = getelementptr inbounds %"struct.btSoftBody::Node", ptr %0, i64 %idxprom.i16
  %m_size.i = getelementptr inbounds i8, ptr %this, i64 1028
  %1 = load i32, ptr %m_size.i, align 4
  %cmp23 = icmp sgt i32 %1, 0
  br i1 %cmp23, label %for.body.lr.ph, label %return

for.body.lr.ph:                                   ; preds = %entry
  %m_data.i18 = getelementptr inbounds i8, ptr %this, i64 1040
  %2 = load ptr, ptr %m_data.i18, align 8
  %3 = zext nneg i32 %1 to i64
  %wide.trip.count = zext nneg i32 %1 to i64
  br label %for.body

for.cond:                                         ; preds = %for.end
  %indvars.iv.next31 = add nuw nsw i64 %indvars.iv30, 1
  %cmp = icmp ult i64 %indvars.iv.next31, %3
  %exitcond32.not = icmp eq i64 %indvars.iv.next31, %wide.trip.count
  br i1 %exitcond32.not, label %return, label %for.body, !llvm.loop !32

for.body:                                         ; preds = %for.body.lr.ph, %for.cond
  %indvars.iv30 = phi i64 [ 0, %for.body.lr.ph ], [ %indvars.iv.next31, %for.cond ]
  %cmp27 = phi i1 [ true, %for.body.lr.ph ], [ %cmp, %for.cond ]
  br label %for.body12

for.body12:                                       ; preds = %for.body, %if.then
  %indvars.iv = phi i64 [ 0, %for.body ], [ %indvars.iv.next, %if.then ]
  %c.021 = phi i32 [ 0, %for.body ], [ %or, %if.then ]
  %arrayidx = getelementptr inbounds %"struct.btSoftBody::Face", ptr %2, i64 %indvars.iv30, i32 1, i64 %indvars.iv
  %4 = load ptr, ptr %arrayidx, align 8
  %cmp14 = icmp eq ptr %4, %arrayidx.i
  %cmp19 = icmp eq ptr %4, %arrayidx.i14
  %or.cond = or i1 %cmp14, %cmp19
  %cmp25 = icmp eq ptr %4, %arrayidx.i17
  %or.cond11 = or i1 %cmp25, %or.cond
  br i1 %or.cond11, label %if.then, label %for.end

if.then:                                          ; preds = %for.body12
  %5 = trunc i64 %indvars.iv to i32
  %shl = shl nuw nsw i32 1, %5
  %or = or i32 %shl, %c.021
  %indvars.iv.next = add nuw nsw i64 %indvars.iv, 1
  %exitcond.not = icmp eq i64 %indvars.iv.next, 3
  br i1 %exitcond.not, label %for.end, label %for.body12, !llvm.loop !33

for.end:                                          ; preds = %for.body12, %if.then
  %c.0.lcssa = phi i32 [ %c.021, %for.body12 ], [ %or, %if.then ]
  %cmp26 = icmp eq i32 %c.0.lcssa, 7
  br i1 %cmp26, label %return, label %for.cond

return:                                           ; preds = %for.end, %for.cond, %entry
  %cmp.lcssa = phi i1 [ false, %entry ], [ %cmp, %for.cond ], [ %cmp27, %for.end ]
  ret i1 %cmp.lcssa
}